target datalayout = "e-m:e-p270:32:32-p271:32:32-p272:64:64-i64:64-i128:128-f80:128-n8:16:32:64-S128"
target triple = "x86_64-pc-linux-gnu"

%"class.llvm::SmallVectorBase" = type { ptr, i32, i32 }
%"class.clang::ento::SVal" = type <{ ptr, i8, [7 x i8] }>
%"class.(anonymous namespace)::BindingKey" = type { %"class.llvm::PointerIntPair.1155", i64 }
%"class.llvm::PointerIntPair.1155" = type { %"struct.llvm::detail::PunnedPointer.1156" }
%"struct.llvm::detail::PunnedPointer.1156" = type { [8 x i8] }
%"class.llvm::SmallVector.1172" = type { %"class.llvm::SmallVectorImpl.1173", %"struct.llvm::SmallVectorStorage.1176" }
%"class.llvm::SmallVectorImpl.1173" = type { %"class.llvm::SmallVectorTemplateBase.1174" }
%"class.llvm::SmallVectorTemplateBase.1174" = type { %"class.llvm::SmallVectorTemplateCommon.1175" }
%"class.llvm::SmallVectorTemplateCommon.1175" = type { %"class.llvm::SmallVectorBase" }
%"struct.llvm::SmallVectorStorage.1176" = type { [160 x i8] }
%"class.llvm::ImutAVLTreeGenericIterator" = type { %"class.llvm::SmallVector.1172" }
%"struct.std::pair.1177" = type { %"class.(anonymous namespace)::BindingKey", %"class.clang::ento::SVal" }
%"class.llvm::ImutAVLTree" = type { ptr, ptr, ptr, ptr, ptr, i32, %"struct.std::pair.1177", i32, i32 }

; Function Attrs: mustprogress nounwind uwtable
define linkonce_odr hidden noundef ptr @_ZNK4llvm25SmallVectorTemplateCommonImvE10getFirstElEv(ptr noundef nonnull align 8 dereferenceable(16) %0) #0 comdat align 2 {
  %2 = alloca ptr, align 8
  store ptr %0, ptr %2, align 8
  %3 = load ptr, ptr %2, align 8
  %4 = getelementptr inbounds i8, ptr %3, i64 16
  ret ptr %4
}

; Function Attrs: mustprogress nounwind uwtable
define linkonce_odr hidden void @_ZN4llvm25SmallVectorTemplateCommonImvE8grow_podEmm(ptr noundef nonnull align 8 dereferenceable(16) %0, i64 noundef %1, i64 noundef %2) #0 comdat align 2 {
  %4 = alloca ptr, align 8
  %5 = alloca i64, align 8
  %6 = alloca i64, align 8
  store ptr %0, ptr %4, align 8
  store i64 %1, ptr %5, align 8
  store i64 %2, ptr %6, align 8
  %7 = load ptr, ptr %4, align 8
  %8 = call noundef ptr @_ZNK4llvm25SmallVectorTemplateCommonImvE10getFirstElEv(ptr noundef nonnull align 8 dereferenceable(16) %7)
  %9 = load i64, ptr %5, align 8
  %10 = load i64, ptr %6, align 8
  call void @_ZN4llvm15SmallVectorBaseIjE8grow_podEPvmm(ptr noundef nonnull align 8 dereferenceable(16) %7, ptr noundef %8, i64 noundef %9, i64 noundef %10)
  ret void
}

; Function Attrs: mustprogress nounwind uwtable
define linkonce_odr hidden void @_ZN4llvm23SmallVectorTemplateBaseImLb1EE4growEm(ptr noundef nonnull align 8 dereferenceable(16) %0, i64 noundef %1) #0 comdat align 2 {
  %3 = alloca ptr, align 8
  %4 = alloca i64, align 8
  store ptr %0, ptr %3, align 8
  store i64 %1, ptr %4, align 8
  %5 = load ptr, ptr %3, align 8
  %6 = load i64, ptr %4, align 8
  call void @_ZN4llvm25SmallVectorTemplateCommonImvE8grow_podEmm(ptr noundef nonnull align 8 dereferenceable(16) %5, i64 noundef %6, i64 noundef 8)
  ret void
}

; Function Attrs: mustprogress nounwind uwtable
define linkonce_odr hidden noundef ptr @_ZNK4llvm25SmallVectorTemplateCommonImvE5beginEv(ptr noundef nonnull align 8 dereferenceable(16) %0) #0 comdat align 2 {
  %2 = alloca ptr, align 8
  store ptr %0, ptr %2, align 8
  %3 = load ptr, ptr %2, align 8
  %4 = getelementptr inbounds nuw %"class.llvm::SmallVectorBase", ptr %3, i32 0, i32 0
  %5 = load ptr, ptr %4, align 8
  ret ptr %5
}

; Function Attrs: mustprogress nounwind uwtable
define linkonce_odr hidden noundef ptr @_ZN4llvm25SmallVectorTemplateCommonImvE32reserveForParamAndGetAddressImplINS_23SmallVectorTemplateBaseImLb1EEEEEPKmPT_RS5_m(ptr noundef %0, ptr noundef nonnull align 8 dereferenceable(8) %1, i64 noundef %2) #0 comdat align 2 {
  %4 = alloca ptr, align 8
  %5 = alloca ptr, align 8
  %6 = alloca ptr, align 8
  %7 = alloca i64, align 8
  %8 = alloca i64, align 8
  %9 = alloca i8, align 1
  %10 = alloca i64, align 8
  store ptr %0, ptr %5, align 8
  store ptr %1, ptr %6, align 8
  store i64 %2, ptr %7, align 8
  %11 = load ptr, ptr %5, align 8
  %12 = call noundef i64 @_ZNK4llvm15SmallVectorBaseIjE4sizeEv(ptr noundef nonnull align 8 dereferenceable(16) %11)
  %13 = load i64, ptr %7, align 8
  %14 = add i64 %12, %13
  store i64 %14, ptr %8, align 8
  %15 = load i64, ptr %8, align 8
  %16 = load ptr, ptr %5, align 8
  %17 = call noundef i64 @_ZNK4llvm15SmallVectorBaseIjE8capacityEv(ptr noundef nonnull align 8 dereferenceable(16) %16)
  %18 = icmp ule i64 %15, %17
  br i1 %18, label %19, label %21

19:                                               ; preds = %3
  %20 = load ptr, ptr %6, align 8
  store ptr %20, ptr %4, align 8
  br label %35

21:                                               ; preds = %3
  store i8 0, ptr %9, align 1
  store i64 -1, ptr %10, align 8
  %22 = load ptr, ptr %5, align 8
  %23 = load i64, ptr %8, align 8
  call void @_ZN4llvm23SmallVectorTemplateBaseImLb1EE4growEm(ptr noundef nonnull align 8 dereferenceable(16) %22, i64 noundef %23)
  %24 = load i8, ptr %9, align 1
  %25 = trunc i8 %24 to i1
  br i1 %25, label %26, label %31

26:                                               ; preds = %21
  %27 = load ptr, ptr %5, align 8
  %28 = call noundef ptr @_ZN4llvm25SmallVectorTemplateCommonImvE5beginEv(ptr noundef nonnull align 8 dereferenceable(16) %27)
  %29 = load i64, ptr %10, align 8
  %30 = getelementptr inbounds i64, ptr %28, i64 %29
  br label %33

31:                                               ; preds = %21
  %32 = load ptr, ptr %6, align 8
  br label %33

33:                                               ; preds = %31, %26
  %34 = phi ptr [ %30, %26 ], [ %32, %31 ]
  store ptr %34, ptr %4, align 8
  br label %35

35:                                               ; preds = %33, %19
  %36 = load ptr, ptr %4, align 8
  ret ptr %36
}

; Function Attrs: mustprogress nounwind uwtable
define linkonce_odr hidden noundef ptr @_ZNK4llvm25SmallVectorTemplateCommonImvE3endEv(ptr noundef nonnull align 8 dereferenceable(16) %0) #0 comdat align 2 {
  %2 = alloca ptr, align 8
  store ptr %0, ptr %2, align 8
  %3 = load ptr, ptr %2, align 8
  %4 = call noundef ptr @_ZNK4llvm25SmallVectorTemplateCommonImvE5beginEv(ptr noundef nonnull align 8 dereferenceable(16) %3)
  %5 = call noundef i64 @_ZNK4llvm15SmallVectorBaseIjE4sizeEv(ptr noundef nonnull align 8 dereferenceable(16) %3)
  %6 = getelementptr inbounds i64, ptr %4, i64 %5
  ret ptr %6
}

; Function Attrs: mustprogress nounwind uwtable
define linkonce_odr hidden noundef ptr @_ZN4llvm25SmallVectorTemplateCommonImvE5beginEv(ptr noundef nonnull align 8 dereferenceable(16) %0) #0 comdat align 2 {
  %2 = alloca ptr, align 8
  store ptr %0, ptr %2, align 8
  %3 = load ptr, ptr %2, align 8
  %4 = getelementptr inbounds nuw %"class.llvm::SmallVectorBase", ptr %3, i32 0, i32 0
  %5 = load ptr, ptr %4, align 8
  ret ptr %5
}

; Function Attrs: mustprogress nounwind uwtable
define linkonce_odr hidden void @_ZN4llvm23SmallVectorTemplateBaseImLb1EE8pop_backEv(ptr noundef nonnull align 8 dereferenceable(16) %0) #0 comdat align 2 {
  %2 = alloca ptr, align 8
  store ptr %0, ptr %2, align 8
  %3 = load ptr, ptr %2, align 8
  %4 = call noundef i64 @_ZNK4llvm15SmallVectorBaseIjE4sizeEv(ptr noundef nonnull align 8 dereferenceable(16) %3)
  %5 = sub i64 %4, 1
  call void @_ZN4llvm15SmallVectorBaseIjE8set_sizeEm(ptr noundef nonnull align 8 dereferenceable(16) %3, i64 noundef %5)
  ret void
}

; Function Attrs: mustprogress nounwind uwtable
define linkonce_odr hidden noundef ptr @_ZN4llvm23SmallVectorTemplateBaseImLb1EE28reserveForParamAndGetAddressERmm(ptr noundef nonnull align 8 dereferenceable(16) %0, ptr noundef nonnull align 8 dereferenceable(8) %1, i64 noundef %2) #0 comdat align 2 {
  %4 = alloca ptr, align 8
  %5 = alloca ptr, align 8
  %6 = alloca i64, align 8
  store ptr %0, ptr %4, align 8
  store ptr %1, ptr %5, align 8
  store i64 %2, ptr %6, align 8
  %7 = load ptr, ptr %4, align 8
  %8 = load ptr, ptr %5, align 8
  %9 = load i64, ptr %6, align 8
  %10 = call noundef ptr @_ZN4llvm25SmallVectorTemplateCommonImvE32reserveForParamAndGetAddressImplINS_23SmallVectorTemplateBaseImLb1EEEEEPKmPT_RS5_m(ptr noundef %7, ptr noundef nonnull align 8 dereferenceable(8) %8, i64 noundef %9)
  ret ptr %10
}

; Function Attrs: mustprogress nounwind uwtable
define linkonce_odr hidden noundef nonnull align 8 dereferenceable(8) ptr @_ZNK4llvm25SmallVectorTemplateCommonImvE4backEv(ptr noundef nonnull align 8 dereferenceable(16) %0) #0 comdat align 2 {
  %2 = alloca ptr, align 8
  store ptr %0, ptr %2, align 8
  %3 = load ptr, ptr %2, align 8
  %4 = call noundef ptr @_ZNK4llvm25SmallVectorTemplateCommonImvE3endEv(ptr noundef nonnull align 8 dereferenceable(16) %3)
  %5 = getelementptr inbounds i64, ptr %4, i64 -1
  ret ptr %5
}

; Function Attrs: mustprogress nounwind uwtable
define linkonce_odr hidden noundef ptr @_ZN4llvm25SmallVectorTemplateCommonImvE3endEv(ptr noundef nonnull align 8 dereferenceable(16) %0) #0 comdat align 2 {
  %2 = alloca ptr, align 8
  store ptr %0, ptr %2, align 8
  %3 = load ptr, ptr %2, align 8
  %4 = call noundef ptr @_ZN4llvm25SmallVectorTemplateCommonImvE5beginEv(ptr noundef nonnull align 8 dereferenceable(16) %3)
  %5 = call noundef i64 @_ZNK4llvm15SmallVectorBaseIjE4sizeEv(ptr noundef nonnull align 8 dereferenceable(16) %3)
  %6 = getelementptr inbounds i64, ptr %4, i64 %5
  ret ptr %6
}

; Function Attrs: mustprogress nounwind uwtable
define internal void @_ZN4llvm26ImutAVLTreeGenericIteratorINS_16ImutKeyValueInfoIN12_GLOBAL__N_110BindingKeyEN5clang4ento4SValEEEE12skipToParentEv(ptr noundef nonnull align 8 dereferenceable(176) %0) #0 align 2 {
  %2 = alloca ptr, align 8
  store ptr %0, ptr %2, align 8
  %3 = load ptr, ptr %2, align 8
  %4 = getelementptr inbounds nuw %"class.llvm::ImutAVLTreeGenericIterator", ptr %3, i32 0, i32 0
  call void @_ZN4llvm23SmallVectorTemplateBaseImLb1EE8pop_backEv(ptr noundef nonnull align 8 dereferenceable(16) %4)
  %5 = getelementptr inbounds nuw %"class.llvm::ImutAVLTreeGenericIterator", ptr %3, i32 0, i32 0
  %6 = call noundef zeroext i1 @_ZNK4llvm15SmallVectorBaseIjE5emptyEv(ptr noundef nonnull align 8 dereferenceable(16) %5)
  br i1 %6, label %7, label %8

7:                                                ; preds = %1
  br label %21

8:                                                ; preds = %1
  %9 = call noundef i64 @_ZNK4llvm26ImutAVLTreeGenericIteratorINS_16ImutKeyValueInfoIN12_GLOBAL__N_110BindingKeyEN5clang4ento4SValEEEE13getVisitStateEv(ptr noundef nonnull align 8 dereferenceable(176) %3)
  switch i64 %9, label %20 [
    i64 0, label %10
    i64 1, label %15
  ]

10:                                               ; preds = %8
  %11 = getelementptr inbounds nuw %"class.llvm::ImutAVLTreeGenericIterator", ptr %3, i32 0, i32 0
  %12 = call noundef nonnull align 8 dereferenceable(8) ptr @_ZN4llvm25SmallVectorTemplateCommonImvE4backEv(ptr noundef nonnull align 8 dereferenceable(16) %11)
  %13 = load i64, ptr %12, align 8
  %14 = or i64 %13, 1
  store i64 %14, ptr %12, align 8
  br label %21

15:                                               ; preds = %8
  %16 = getelementptr inbounds nuw %"class.llvm::ImutAVLTreeGenericIterator", ptr %3, i32 0, i32 0
  %17 = call noundef nonnull align 8 dereferenceable(8) ptr @_ZN4llvm25SmallVectorTemplateCommonImvE4backEv(ptr noundef nonnull align 8 dereferenceable(16) %16)
  %18 = load i64, ptr %17, align 8
  %19 = or i64 %18, 3
  store i64 %19, ptr %17, align 8
  br label %21

20:                                               ; preds = %8
  unreachable

21:                                               ; preds = %15, %10, %7
  ret void
}

; Function Attrs: mustprogress nounwind uwtable
define internal noundef ptr @_ZNK4llvm11ImutAVLTreeINS_16ImutKeyValueInfoIN12_GLOBAL__N_110BindingKeyEN5clang4ento4SValEEEE8getRightEv(ptr noundef nonnull align 8 dereferenceable(88) %0) #0 align 2 {
  %2 = alloca ptr, align 8
  store ptr %0, ptr %2, align 8
  %3 = load ptr, ptr %2, align 8
  %4 = getelementptr inbounds nuw %"class.llvm::ImutAVLTree", ptr %3, i32 0, i32 2
  %5 = load ptr, ptr %4, align 8
  ret ptr %5
}

; Function Attrs: mustprogress nounwind uwtable
define linkonce_odr hidden void @_ZN4llvm23SmallVectorTemplateBaseImLb1EE9push_backEm(ptr noundef nonnull align 8 dereferenceable(16) %0, i64 noundef %1) #0 comdat align 2 {
  %3 = alloca ptr, align 8
  %4 = alloca i64, align 8
  %5 = alloca ptr, align 8
  store ptr %0, ptr %3, align 8
  store i64 %1, ptr %4, align 8
  %6 = load ptr, ptr %3, align 8
  %7 = call noundef ptr @_ZN4llvm23SmallVectorTemplateBaseImLb1EE28reserveForParamAndGetAddressERmm(ptr noundef nonnull align 8 dereferenceable(16) %6, ptr noundef nonnull align 8 dereferenceable(8) %4, i64 noundef 1)
  store ptr %7, ptr %5, align 8
  %8 = call noundef ptr @_ZN4llvm25SmallVectorTemplateCommonImvE3endEv(ptr noundef nonnull align 8 dereferenceable(16) %6)
  %9 = load ptr, ptr %5, align 8
  call void @llvm.memcpy.p0.p0.i64(ptr align 1 %8, ptr align 8 %9, i64 8, i1 false)
  %10 = call noundef i64 @_ZNK4llvm15SmallVectorBaseIjE4sizeEv(ptr noundef nonnull align 8 dereferenceable(16) %6)
  %11 = add i64 %10, 1
  call void @_ZN4llvm15SmallVectorBaseIjE8set_sizeEm(ptr noundef nonnull align 8 dereferenceable(16) %6, i64 noundef %11)
  ret void
}

; Function Attrs: mustprogress nounwind uwtable
define internal noundef ptr @_ZNK4llvm11ImutAVLTreeINS_16ImutKeyValueInfoIN12_GLOBAL__N_110BindingKeyEN5clang4ento4SValEEEE7getLeftEv(ptr noundef nonnull align 8 dereferenceable(88) %0) #0 align 2 {
  %2 = alloca ptr, align 8
  store ptr %0, ptr %2, align 8
  %3 = load ptr, ptr %2, align 8
  %4 = getelementptr inbounds nuw %"class.llvm::ImutAVLTree", ptr %3, i32 0, i32 1
  %5 = load ptr, ptr %4, align 8
  ret ptr %5
}

; Function Attrs: mustprogress nounwind uwtable
define internal noundef i64 @_ZNK4llvm26ImutAVLTreeGenericIteratorINS_16ImutKeyValueInfoIN12_GLOBAL__N_110BindingKeyEN5clang4ento4SValEEEE13getVisitStateEv(ptr noundef nonnull align 8 dereferenceable(176) %0) #0 align 2 {
  %2 = alloca ptr, align 8
  store ptr %0, ptr %2, align 8
  %3 = load ptr, ptr %2, align 8
  %4 = getelementptr inbounds nuw %"class.llvm::ImutAVLTreeGenericIterator", ptr %3, i32 0, i32 0
  %5 = call noundef nonnull align 8 dereferenceable(8) ptr @_ZNK4llvm25SmallVectorTemplateCommonImvE4backEv(ptr noundef nonnull align 8 dereferenceable(16) %4)
  %6 = load i64, ptr %5, align 8
  %7 = and i64 %6, 3
  ret i64 %7
}

; Function Attrs: mustprogress nounwind uwtable
define linkonce_odr hidden noundef nonnull align 8 dereferenceable(8) ptr @_ZN4llvm25SmallVectorTemplateCommonImvE4backEv(ptr noundef nonnull align 8 dereferenceable(16) %0) #0 comdat align 2 {
  %2 = alloca ptr, align 8
  store ptr %0, ptr %2, align 8
  %3 = load ptr, ptr %2, align 8
  %4 = call noundef ptr @_ZN4llvm25SmallVectorTemplateCommonImvE3endEv(ptr noundef nonnull align 8 dereferenceable(16) %3)
  %5 = getelementptr inbounds i64, ptr %4, i64 -1
  ret ptr %5
}

; Function Attrs: mustprogress nounwind uwtable
define internal noundef nonnull align 8 dereferenceable(176) ptr @_ZN4llvm26ImutAVLTreeGenericIteratorINS_16ImutKeyValueInfoIN12_GLOBAL__N_110BindingKeyEN5clang4ento4SValEEEEppEv(ptr noundef nonnull align 8 dereferenceable(176) %0) #0 align 2 {
  %2 = alloca ptr, align 8
  %3 = alloca ptr, align 8
  %4 = alloca ptr, align 8
  %5 = alloca ptr, align 8
  store ptr %0, ptr %2, align 8
  %6 = load ptr, ptr %2, align 8
  %7 = getelementptr inbounds nuw %"class.llvm::ImutAVLTreeGenericIterator", ptr %6, i32 0, i32 0
  %8 = call noundef nonnull align 8 dereferenceable(8) ptr @_ZN4llvm25SmallVectorTemplateCommonImvE4backEv(ptr noundef nonnull align 8 dereferenceable(16) %7)
  %9 = load i64, ptr %8, align 8
  %10 = and i64 %9, -4
  %11 = inttoptr i64 %10 to ptr
  store ptr %11, ptr %3, align 8
  %12 = call noundef i64 @_ZNK4llvm26ImutAVLTreeGenericIteratorINS_16ImutKeyValueInfoIN12_GLOBAL__N_110BindingKeyEN5clang4ento4SValEEEE13getVisitStateEv(ptr noundef nonnull align 8 dereferenceable(176) %6)
  switch i64 %12, label %44 [
    i64 0, label %13
    i64 1, label %28
    i64 3, label %43
  ]

13:                                               ; preds = %1
  %14 = load ptr, ptr %3, align 8
  %15 = call noundef ptr @_ZNK4llvm11ImutAVLTreeINS_16ImutKeyValueInfoIN12_GLOBAL__N_110BindingKeyEN5clang4ento4SValEEEE7getLeftEv(ptr noundef nonnull align 8 dereferenceable(88) %14)
  store ptr %15, ptr %4, align 8
  %16 = load ptr, ptr %4, align 8
  %17 = icmp ne ptr %16, null
  br i1 %17, label %18, label %22

18:                                               ; preds = %13
  %19 = getelementptr inbounds nuw %"class.llvm::ImutAVLTreeGenericIterator", ptr %6, i32 0, i32 0
  %20 = load ptr, ptr %4, align 8
  %21 = ptrtoint ptr %20 to i64
  call void @_ZN4llvm23SmallVectorTemplateBaseImLb1EE9push_backEm(ptr noundef nonnull align 8 dereferenceable(16) %19, i64 noundef %21)
  br label %27

22:                                               ; preds = %13
  %23 = getelementptr inbounds nuw %"class.llvm::ImutAVLTreeGenericIterator", ptr %6, i32 0, i32 0
  %24 = call noundef nonnull align 8 dereferenceable(8) ptr @_ZN4llvm25SmallVectorTemplateCommonImvE4backEv(ptr noundef nonnull align 8 dereferenceable(16) %23)
  %25 = load i64, ptr %24, align 8
  %26 = or i64 %25, 1
  store i64 %26, ptr %24, align 8
  br label %27

27:                                               ; preds = %22, %18
  br label %45

28:                                               ; preds = %1
  %29 = load ptr, ptr %3, align 8
  %30 = call noundef ptr @_ZNK4llvm11ImutAVLTreeINS_16ImutKeyValueInfoIN12_GLOBAL__N_110BindingKeyEN5clang4ento4SValEEEE8getRightEv(ptr noundef nonnull align 8 dereferenceable(88) %29)
  store ptr %30, ptr %5, align 8
  %31 = load ptr, ptr %5, align 8
  %32 = icmp ne ptr %31, null
  br i1 %32, label %33, label %37

33:                                               ; preds = %28
  %34 = getelementptr inbounds nuw %"class.llvm::ImutAVLTreeGenericIterator", ptr %6, i32 0, i32 0
  %35 = load ptr, ptr %5, align 8
  %36 = ptrtoint ptr %35 to i64
  call void @_ZN4llvm23SmallVectorTemplateBaseImLb1EE9push_backEm(ptr noundef nonnull align 8 dereferenceable(16) %34, i64 noundef %36)
  br label %42

37:                                               ; preds = %28
  %38 = getelementptr inbounds nuw %"class.llvm::ImutAVLTreeGenericIterator", ptr %6, i32 0, i32 0
  %39 = call noundef nonnull align 8 dereferenceable(8) ptr @_ZN4llvm25SmallVectorTemplateCommonImvE4backEv(ptr noundef nonnull align 8 dereferenceable(16) %38)
  %40 = load i64, ptr %39, align 8
  %41 = or i64 %40, 3
  store i64 %41, ptr %39, align 8
  br label %42

42:                                               ; preds = %37, %33
  br label %45

43:                                               ; preds = %1
  call void @_ZN4llvm26ImutAVLTreeGenericIteratorINS_16ImutKeyValueInfoIN12_GLOBAL__N_110BindingKeyEN5clang4ento4SValEEEE12skipToParentEv(ptr noundef nonnull align 8 dereferenceable(176) %6)
  br label %45

44:                                               ; preds = %1
  unreachable

45:                                               ; preds = %43, %42, %27
  ret ptr %6
}